; Function Attrs: nounwind uwtable
define ptr @l_Lake_rpad___boxed(ptr noundef %0, ptr noundef %1, ptr noundef %2) local_unnamed_addr #0 {
  %4 = ptrtoint ptr %1 to i64
  %5 = lshr i64 %4, 1
  %6 = trunc i64 %5 to i32
  %7 = and i64 %4, 1
  %.not = icmp eq i64 %7, 0
  br i1 %.not, label %8, label %lean_dec.exit6

8:                                                ; preds = %3
  %9 = load i32, ptr %1, align 4, !tbaa !5
  %10 = icmp sgt i32 %9, 1
  br i1 %10, label %11, label %13, !prof !10

11:                                               ; preds = %8
  %12 = add nsw i32 %9, -1
  store i32 %12, ptr %1, align 4, !tbaa !5
  br label %lean_dec.exit6

13:                                               ; preds = %8
  %.not.i = icmp eq i32 %9, 0
  br i1 %.not.i, label %lean_dec.exit6, label %14

14:                                               ; preds = %13
  tail call void @lean_dec_ref_cold(ptr noundef nonnull %1) #3
  br label %lean_dec.exit6

lean_dec.exit6:                                   ; preds = %14, %13, %11, %3
  %15 = getelementptr i8, ptr %0, i64 24
  %.val.i = load i64, ptr %15, align 8, !tbaa !11
  %16 = ptrtoint ptr %2 to i64
  %17 = and i64 %16, 1
  %.not.i9 = icmp eq i64 %17, 0
  br i1 %.not.i9, label %26, label %l_Lake_rpad.exit.thread, !prof !4

l_Lake_rpad.exit.thread:                          ; preds = %lean_dec.exit6
  %18 = lshr i64 %16, 1
  %19 = and i64 %.val.i, 9223372036854775807
  %20 = icmp samesign ult i64 %18, %19
  %21 = sub nuw nsw i64 %18, %19
  %22 = shl nuw i64 %21, 1
  %23 = or disjoint i64 %22, 1
  %24 = inttoptr i64 %23 to ptr
  %.1.i.i.ph = select i1 %20, ptr inttoptr (i64 1 to ptr), ptr %24
  %25 = tail call ptr @l_Nat_repeatTR_loop___at_Lake_rpad___spec__1(i32 noundef %6, ptr noundef nonnull %.1.i.i.ph, ptr noundef nonnull %0)
  br label %lean_dec.exit

26:                                               ; preds = %lean_dec.exit6
  %27 = shl i64 %.val.i, 1
  %28 = or disjoint i64 %27, 1
  %29 = inttoptr i64 %28 to ptr
  %30 = tail call ptr @lean_nat_big_sub(ptr noundef %2, ptr noundef nonnull %29) #3
  %31 = tail call ptr @l_Nat_repeatTR_loop___at_Lake_rpad___spec__1(i32 noundef %6, ptr noundef %30, ptr noundef nonnull %0)
  %32 = load i32, ptr %2, align 4, !tbaa !5
  %33 = icmp sgt i32 %32, 1
  br i1 %33, label %34, label %36, !prof !10

34:                                               ; preds = %26
  %35 = add nsw i32 %32, -1
  store i32 %35, ptr %2, align 4, !tbaa !5
  br label %lean_dec.exit

36:                                               ; preds = %26
  %.not.i7 = icmp eq i32 %32, 0
  br i1 %.not.i7, label %lean_dec.exit, label %37

37:                                               ; preds = %36
  tail call void @lean_dec_ref_cold(ptr noundef nonnull %2) #3
  br label %lean_dec.exit

lean_dec.exit:                                    ; preds = %37, %36, %34, %l_Lake_rpad.exit.thread
  %38 = phi ptr [ %25, %l_Lake_rpad.exit.thread ], [ %31, %34 ], [ %31, %36 ], [ %31, %37 ]
  ret ptr %38
}